target datalayout = "e-m:e-p270:32:32-p271:32:32-p272:64:64-i64:64-i128:128-f80:128-n8:16:32:64-S128"
target triple = "x86_64-pc-linux-gnu"

%"class.icu_77::RelativeDateFormat" = type { %"class.icu_77::DateFormat", ptr, %"class.icu_77::UnicodeString", %"class.icu_77::UnicodeString", ptr, i32, [4 x i8], %"class.icu_77::Locale", i32, ptr, i8, i8, i8, i8, ptr }
%"class.icu_77::DateFormat" = type { %"class.icu_77::Format", ptr, ptr, %"class.icu_77::EnumSet", i32 }
%"class.icu_77::Format" = type { %"class.icu_77::UObject", ptr, ptr }
%"class.icu_77::UObject" = type { ptr }
%"class.icu_77::EnumSet" = type { i32 }
%"class.icu_77::UnicodeString" = type { %"class.icu_77::Replaceable", %"union.icu_77::UnicodeString::StackBufferOrFields" }
%"class.icu_77::Replaceable" = type { %"class.icu_77::UObject" }
%"union.icu_77::UnicodeString::StackBufferOrFields" = type { %struct.anon.0, [32 x i8] }
%struct.anon.0 = type { i16, i32, i32, ptr }
%"class.icu_77::Locale" = type <{ %"class.icu_77::UObject", [12 x i8], [6 x i8], [4 x i8], [2 x i8], i32, [4 x i8], ptr, [157 x i8], [3 x i8], ptr, i8, [7 x i8] }>
%"class.icu_77::internal::LocalOpenPointer" = type { %"class.icu_77::LocalPointerBase" }
%"class.icu_77::LocalPointerBase" = type { ptr }

@.str.2 = private unnamed_addr constant [27 x i8] c"contextTransforms/relative\00", align 1

; Function Attrs: mustprogress nounwind uwtable
define linkonce_odr void @_ZN6icu_7716LocalPointerBaseI15UResourceBundleEC2EPS1_(ptr noundef nonnull align 8 dereferenceable(8) %0, ptr noundef %1) unnamed_addr #0 comdat align 2 {
  %3 = alloca ptr, align 8
  %4 = alloca ptr, align 8
  store ptr %0, ptr %3, align 8, !tbaa !98
  store ptr %1, ptr %4, align 8, !tbaa !55
  %5 = load ptr, ptr %3, align 8
  %6 = getelementptr inbounds nuw %"class.icu_77::LocalPointerBase", ptr %5, i32 0, i32 0
  %7 = load ptr, ptr %4, align 8, !tbaa !55
  store ptr %7, ptr %6, align 8, !tbaa !100
  ret void
}

; Function Attrs: mustprogress nounwind uwtable
define linkonce_odr noundef zeroext i1 @_ZNK6icu_7716LocalPointerBaseI15UResourceBundleEneEPKS1_(ptr noundef nonnull align 8 dereferenceable(8) %0, ptr noundef %1) #0 comdat align 2 {
  %3 = alloca ptr, align 8
  %4 = alloca ptr, align 8
  store ptr %0, ptr %3, align 8, !tbaa !98
  store ptr %1, ptr %4, align 8, !tbaa !55
  %5 = load ptr, ptr %3, align 8
  %6 = getelementptr inbounds nuw %"class.icu_77::LocalPointerBase", ptr %5, i32 0, i32 0
  %7 = load ptr, ptr %6, align 8, !tbaa !100
  %8 = load ptr, ptr %4, align 8, !tbaa !55
  %9 = icmp ne ptr %7, %8
  ret i1 %9
}

; Function Attrs: inlinehint mustprogress nounwind uwtable
define internal noundef signext i8 @_ZL9U_SUCCESS10UErrorCode(i32 noundef %0) #7 {
  %2 = alloca i32, align 4
  store i32 %0, ptr %2, align 4, !tbaa !44
  %3 = load i32, ptr %2, align 4, !tbaa !44
  %4 = icmp sle i32 %3, 0
  %5 = zext i1 %4 to i8
  ret i8 %5
}

; Function Attrs: mustprogress nounwind uwtable
define linkonce_odr noundef ptr @_ZNK6icu_7716LocalPointerBaseI15UResourceBundleE8getAliasEv(ptr noundef nonnull align 8 dereferenceable(8) %0) #0 comdat align 2 {
  %2 = alloca ptr, align 8
  store ptr %0, ptr %2, align 8, !tbaa !98
  %3 = load ptr, ptr %2, align 8
  %4 = getelementptr inbounds nuw %"class.icu_77::LocalPointerBase", ptr %3, i32 0, i32 0
  %5 = load ptr, ptr %4, align 8, !tbaa !100
  ret ptr %5
}

; Function Attrs: mustprogress uwtable
define linkonce_odr void @_ZN6icu_778internal16LocalOpenPointerI15UResourceBundleXadL_Z13ures_close_77EEEC2EPS2_(ptr noundef nonnull align 8 dereferenceable(8) %0, ptr noundef %1) unnamed_addr #1 comdat align 2 {
  %3 = alloca ptr, align 8
  %4 = alloca ptr, align 8
  store ptr %0, ptr %3, align 8, !tbaa !96
  store ptr %1, ptr %4, align 8, !tbaa !55
  %5 = load ptr, ptr %3, align 8
  %6 = load ptr, ptr %4, align 8, !tbaa !55
  call void @_ZN6icu_7716LocalPointerBaseI15UResourceBundleEC2EPS1_(ptr noundef nonnull align 8 dereferenceable(8) %5, ptr noundef %6)
  ret void
}

; Function Attrs: inlinehint mustprogress uwtable
define linkonce_odr noundef zeroext i1 @_ZNK6icu_776LocaleneERKS0_(ptr noundef nonnull align 8 dereferenceable(217) %0, ptr noundef nonnull align 8 dereferenceable(217) %1) #6 comdat align 2 {
  %3 = alloca ptr, align 8
  %4 = alloca ptr, align 8
  store ptr %0, ptr %3, align 8, !tbaa !41
  store ptr %1, ptr %4, align 8, !tbaa !41
  %5 = load ptr, ptr %3, align 8
  %6 = load ptr, ptr %4, align 8, !tbaa !41
  %7 = call noundef zeroext i1 @_ZNK6icu_776LocaleeqERKS0_(ptr noundef nonnull align 8 dereferenceable(217) %5, ptr noundef nonnull align 8 dereferenceable(217) %6)
  %8 = xor i1 %7, true
  ret i1 %8
}

; Function Attrs: mustprogress uwtable
define void @_ZN6icu_7718RelativeDateFormat29initCapitalizationContextInfoERKNS_6LocaleE(ptr noundef nonnull align 8 dereferenceable(456) %0, ptr noundef nonnull align 8 dereferenceable(217) %1) #1 align 2 personality ptr @__gxx_personality_v0 {
  %3 = alloca ptr, align 8
  %4 = alloca ptr, align 8
  %5 = alloca ptr, align 8
  %6 = alloca %"class.icu_77::Locale", align 8
  %7 = alloca ptr, align 8
  %8 = alloca i32, align 4
  %9 = alloca i32, align 4
  %10 = alloca %"class.icu_77::internal::LocalOpenPointer", align 8
  %11 = alloca i32, align 4
  %12 = alloca ptr, align 8
  store ptr %0, ptr %3, align 8, !tbaa !3
  store ptr %1, ptr %4, align 8, !tbaa !41
  %13 = load ptr, ptr %3, align 8
  call void @llvm.lifetime.start.p0(i64 8, ptr %5) #13
  %14 = load ptr, ptr %4, align 8, !tbaa !41
  call void @llvm.lifetime.start.p0(i64 224, ptr %6) #13
  call void @_ZN6icu_776LocaleC1EPKcS2_S2_S2_(ptr noundef nonnull align 8 dereferenceable(217) %6, ptr noundef null, ptr noundef null, ptr noundef null, ptr noundef null)
  %15 = invoke noundef zeroext i1 @_ZNK6icu_776LocaleneERKS0_(ptr noundef nonnull align 8 dereferenceable(217) %14, ptr noundef nonnull align 8 dereferenceable(217) %6)
          to label %16 unwind label %65

16:                                               ; preds = %2
  br i1 %15, label %17, label %21

17:                                               ; preds = %16
  %18 = load ptr, ptr %4, align 8, !tbaa !41
  %19 = invoke noundef ptr @_ZNK6icu_776Locale11getBaseNameEv(ptr noundef nonnull align 8 dereferenceable(217) %18)
          to label %20 unwind label %65

20:                                               ; preds = %17
  br label %22

21:                                               ; preds = %16
  br label %22

22:                                               ; preds = %21, %20
  %23 = phi ptr [ %19, %20 ], [ null, %21 ]
  call void @_ZN6icu_776LocaleD1Ev(ptr noundef nonnull align 8 dereferenceable(217) %6) #13
  call void @llvm.lifetime.end.p0(i64 224, ptr %6) #13
  store ptr %23, ptr %5, align 8, !tbaa !95
  call void @llvm.lifetime.start.p0(i64 4, ptr %9) #13
  store i32 0, ptr %9, align 4, !tbaa !44
  call void @llvm.lifetime.start.p0(i64 8, ptr %10) #13
  %24 = load ptr, ptr %5, align 8, !tbaa !95
  %25 = call ptr @ures_open_77(ptr noundef null, ptr noundef %24, ptr noundef %9)
  call void @_ZN6icu_778internal16LocalOpenPointerI15UResourceBundleXadL_Z13ures_close_77EEEC2EPS2_(ptr noundef nonnull align 8 dereferenceable(8) %10, ptr noundef %25)
  %26 = invoke noundef ptr @_ZNK6icu_7716LocalPointerBaseI15UResourceBundleE8getAliasEv(ptr noundef nonnull align 8 dereferenceable(8) %10)
          to label %27 unwind label %69

27:                                               ; preds = %22
  %28 = invoke noundef ptr @_ZNK6icu_7716LocalPointerBaseI15UResourceBundleE8getAliasEv(ptr noundef nonnull align 8 dereferenceable(8) %10)
          to label %29 unwind label %69

29:                                               ; preds = %27
  %30 = invoke ptr @ures_getByKeyWithFallback_77(ptr noundef %26, ptr noundef @.str.2, ptr noundef %28, ptr noundef %9)
          to label %31 unwind label %69

31:                                               ; preds = %29
  %32 = load i32, ptr %9, align 4, !tbaa !44
  %33 = invoke noundef signext i8 @_ZL9U_SUCCESS10UErrorCode(i32 noundef %32)
          to label %34 unwind label %69

34:                                               ; preds = %31
  %35 = icmp ne i8 %33, 0
  br i1 %35, label %36, label %78

36:                                               ; preds = %34
  %37 = invoke noundef zeroext i1 @_ZNK6icu_7716LocalPointerBaseI15UResourceBundleEneEPKS1_(ptr noundef nonnull align 8 dereferenceable(8) %10, ptr noundef null)
          to label %38 unwind label %69

38:                                               ; preds = %36
  br i1 %37, label %39, label %78

39:                                               ; preds = %38
  call void @llvm.lifetime.start.p0(i64 4, ptr %11) #13
  store i32 0, ptr %11, align 4, !tbaa !57
  call void @llvm.lifetime.start.p0(i64 8, ptr %12) #13
  %40 = invoke noundef ptr @_ZNK6icu_7716LocalPointerBaseI15UResourceBundleE8getAliasEv(ptr noundef nonnull align 8 dereferenceable(8) %10)
          to label %41 unwind label %73

41:                                               ; preds = %39
  %42 = invoke ptr @ures_getIntVector_77(ptr noundef %40, ptr noundef %11, ptr noundef %9)
          to label %43 unwind label %73

43:                                               ; preds = %41
  store ptr %42, ptr %12, align 8, !tbaa !66
  %44 = load i32, ptr %9, align 4, !tbaa !44
  %45 = invoke noundef signext i8 @_ZL9U_SUCCESS10UErrorCode(i32 noundef %44)
          to label %46 unwind label %73

46:                                               ; preds = %43
  %47 = icmp ne i8 %45, 0
  br i1 %47, label %48, label %77

48:                                               ; preds = %46
  %49 = load ptr, ptr %12, align 8, !tbaa !66
  %50 = icmp ne ptr %49, null
  br i1 %50, label %51, label %77

51:                                               ; preds = %48
  %52 = load i32, ptr %11, align 4, !tbaa !57
  %53 = icmp sge i32 %52, 2
  br i1 %53, label %54, label %77

54:                                               ; preds = %51
  %55 = load ptr, ptr %12, align 8, !tbaa !66
  %56 = getelementptr inbounds i32, ptr %55, i64 0
  %57 = load i32, ptr %56, align 4, !tbaa !57
  %58 = trunc i32 %57 to i8
  %59 = getelementptr inbounds nuw %"class.icu_77::RelativeDateFormat", ptr %13, i32 0, i32 12
  store i8 %58, ptr %59, align 2, !tbaa !36
  %60 = load ptr, ptr %12, align 8, !tbaa !66
  %61 = getelementptr inbounds i32, ptr %60, i64 1
  %62 = load i32, ptr %61, align 4, !tbaa !57
  %63 = trunc i32 %62 to i8
  %64 = getelementptr inbounds nuw %"class.icu_77::RelativeDateFormat", ptr %13, i32 0, i32 13
  store i8 %63, ptr %64, align 1, !tbaa !37
  br label %77

65:                                               ; preds = %17, %2
  %66 = landingpad { ptr, i32 }
          cleanup
  %67 = extractvalue { ptr, i32 } %66, 0
  store ptr %67, ptr %7, align 8
  %68 = extractvalue { ptr, i32 } %66, 1
  store i32 %68, ptr %8, align 4
  call void @_ZN6icu_776LocaleD1Ev(ptr noundef nonnull align 8 dereferenceable(217) %6) #13
  call void @llvm.lifetime.end.p0(i64 224, ptr %6) #13
  br label %80

69:                                               ; preds = %36, %31, %29, %27, %22
  %70 = landingpad { ptr, i32 }
          cleanup
  %71 = extractvalue { ptr, i32 } %70, 0
  store ptr %71, ptr %7, align 8
  %72 = extractvalue { ptr, i32 } %70, 1
  store i32 %72, ptr %8, align 4
  br label %79

73:                                               ; preds = %43, %41, %39
  %74 = landingpad { ptr, i32 }
          cleanup
  %75 = extractvalue { ptr, i32 } %74, 0
  store ptr %75, ptr %7, align 8
  %76 = extractvalue { ptr, i32 } %74, 1
  store i32 %76, ptr %8, align 4
  call void @llvm.lifetime.end.p0(i64 8, ptr %12) #13
  call void @llvm.lifetime.end.p0(i64 4, ptr %11) #13
  br label %79

77:                                               ; preds = %54, %51, %48, %46
  call void @llvm.lifetime.end.p0(i64 8, ptr %12) #13
  call void @llvm.lifetime.end.p0(i64 4, ptr %11) #13
  br label %78

78:                                               ; preds = %77, %38, %34
  call void @_ZN6icu_778internal16LocalOpenPointerI15UResourceBundleXadL_Z13ures_close_77EEED2Ev(ptr noundef nonnull align 8 dereferenceable(8) %10) #13
  call void @llvm.lifetime.end.p0(i64 8, ptr %10) #13
  call void @llvm.lifetime.end.p0(i64 4, ptr %9) #13
  call void @llvm.lifetime.end.p0(i64 8, ptr %5) #13
  ret void

79:                                               ; preds = %73, %69
  call void @_ZN6icu_778internal16LocalOpenPointerI15UResourceBundleXadL_Z13ures_close_77EEED2Ev(ptr noundef nonnull align 8 dereferenceable(8) %10) #13
  call void @llvm.lifetime.end.p0(i64 8, ptr %10) #13
  call void @llvm.lifetime.end.p0(i64 4, ptr %9) #13
  br label %80

80:                                               ; preds = %79, %65
  call void @llvm.lifetime.end.p0(i64 8, ptr %5) #13
  br label %81

81:                                               ; preds = %80
  %82 = load ptr, ptr %7, align 8
  %83 = load i32, ptr %8, align 4
  %84 = insertvalue { ptr, i32 } poison, ptr %82, 0
  %85 = insertvalue { ptr, i32 } %84, i32 %83, 1
  resume { ptr, i32 } %85
}