; Function Attrs: mustprogress uwtable
define void @_ZN6icu_7718RelativeDateFormat29initCapitalizationContextInfoERKNS_6LocaleE(ptr noundef nonnull writeonly align 8 captures(none) dereferenceable(456) %0, ptr noundef nonnull align 8 dereferenceable(217) %1) local_unnamed_addr #1 align 2 personality ptr @__gxx_personality_v0 {
  %3 = alloca %"class.icu_77::Locale", align 8
  %4 = alloca i32, align 4
  %5 = alloca %"class.icu_77::internal::LocalOpenPointer", align 8
  %6 = alloca i32, align 4
  call void @llvm.lifetime.start.p0(i64 224, ptr nonnull %3) #15
  call void @_ZN6icu_776LocaleC1EPKcS2_S2_S2_(ptr noundef nonnull align 8 dereferenceable(217) %3, ptr noundef null, ptr noundef null, ptr noundef null, ptr noundef null)
  %7 = invoke noundef zeroext i1 @_ZNK6icu_776LocaleeqERKS0_(ptr noundef nonnull align 8 dereferenceable(217) %1, ptr noundef nonnull align 8 dereferenceable(217) %3)
          to label %8 unwind label %35

8:                                                ; preds = %2
  br i1 %7, label %11, label %9

9:                                                ; preds = %8
  %10 = invoke noundef ptr @_ZNK6icu_776Locale11getBaseNameEv(ptr noundef nonnull align 8 dereferenceable(217) %1)
          to label %11 unwind label %35

11:                                               ; preds = %8, %9
  %12 = phi ptr [ %10, %9 ], [ null, %8 ]
  call void @_ZN6icu_776LocaleD1Ev(ptr noundef nonnull align 8 dereferenceable(217) %3) #15
  call void @llvm.lifetime.end.p0(i64 224, ptr nonnull %3) #15
  call void @llvm.lifetime.start.p0(i64 4, ptr nonnull %4) #15
  store i32 0, ptr %4, align 4, !tbaa !38
  call void @llvm.lifetime.start.p0(i64 8, ptr nonnull %5) #15
  %13 = call ptr @ures_open_77(ptr noundef null, ptr noundef %12, ptr noundef nonnull %4)
  store ptr %13, ptr %5, align 8, !tbaa !41
  %14 = invoke ptr @ures_getByKeyWithFallback_77(ptr noundef %13, ptr noundef nonnull @.str.2, ptr noundef %13, ptr noundef nonnull %4)
          to label %15 unwind label %37

15:                                               ; preds = %11
  %16 = load i32, ptr %4, align 4, !tbaa !38
  %17 = icmp sgt i32 %16, 0
  %.not.i = icmp eq ptr %13, null
  br i1 %17, label %41, label %18

18:                                               ; preds = %15
  br i1 %.not.i, label %_ZN6icu_778internal16LocalOpenPointerI15UResourceBundleXadL_Z13ures_close_77EEED2Ev.exit, label %19

19:                                               ; preds = %18
  call void @llvm.lifetime.start.p0(i64 4, ptr nonnull %6) #15
  store i32 0, ptr %6, align 4, !tbaa !44
  %20 = invoke ptr @ures_getIntVector_77(ptr noundef nonnull %13, ptr noundef nonnull %6, ptr noundef nonnull %4)
          to label %21 unwind label %39

21:                                               ; preds = %19
  %22 = load i32, ptr %4, align 4, !tbaa !38
  %23 = icmp slt i32 %22, 1
  %24 = icmp ne ptr %20, null
  %or.cond = select i1 %23, i1 %24, i1 false
  %25 = load i32, ptr %6, align 4
  %26 = icmp sgt i32 %25, 1
  %or.cond3 = select i1 %or.cond, i1 %26, i1 false
  br i1 %or.cond3, label %27, label %.thread

27:                                               ; preds = %21
  %28 = load i32, ptr %20, align 4, !tbaa !44
  %29 = trunc i32 %28 to i8
  %30 = getelementptr inbounds nuw i8, ptr %0, i64 442
  store i8 %29, ptr %30, align 2, !tbaa !34
  %31 = getelementptr inbounds nuw i8, ptr %20, i64 4
  %32 = load i32, ptr %31, align 4, !tbaa !44
  %33 = trunc i32 %32 to i8
  %34 = getelementptr inbounds nuw i8, ptr %0, i64 443
  store i8 %33, ptr %34, align 1, !tbaa !35
  br label %.thread

35:                                               ; preds = %2, %9
  %36 = landingpad { ptr, i32 }
          cleanup
  call void @_ZN6icu_776LocaleD1Ev(ptr noundef nonnull align 8 dereferenceable(217) %3) #15
  call void @llvm.lifetime.end.p0(i64 224, ptr nonnull %3) #15
  br label %47

37:                                               ; preds = %11
  %38 = landingpad { ptr, i32 }
          cleanup
  br label %46

39:                                               ; preds = %19
  %40 = landingpad { ptr, i32 }
          cleanup
  call void @llvm.lifetime.end.p0(i64 4, ptr nonnull %6) #15
  br label %46

.thread:                                          ; preds = %21, %27
  call void @llvm.lifetime.end.p0(i64 4, ptr nonnull %6) #15
  br label %42

41:                                               ; preds = %15
  br i1 %.not.i, label %_ZN6icu_778internal16LocalOpenPointerI15UResourceBundleXadL_Z13ures_close_77EEED2Ev.exit, label %42

42:                                               ; preds = %.thread, %41
  invoke void @ures_close_77(ptr noundef nonnull %13)
          to label %_ZN6icu_778internal16LocalOpenPointerI15UResourceBundleXadL_Z13ures_close_77EEED2Ev.exit unwind label %43

43:                                               ; preds = %42
  %44 = landingpad { ptr, i32 }
          catch ptr null
  %45 = extractvalue { ptr, i32 } %44, 0
  call void @__clang_call_terminate(ptr %45) #17
  unreachable

_ZN6icu_778internal16LocalOpenPointerI15UResourceBundleXadL_Z13ures_close_77EEED2Ev.exit: ; preds = %18, %41, %42
  call void @llvm.lifetime.end.p0(i64 8, ptr nonnull %5) #15
  call void @llvm.lifetime.end.p0(i64 4, ptr nonnull %4) #15
  ret void

46:                                               ; preds = %39, %37
  %.pn = phi { ptr, i32 } [ %40, %39 ], [ %38, %37 ]
  call void @_ZN6icu_778internal16LocalOpenPointerI15UResourceBundleXadL_Z13ures_close_77EEED2Ev(ptr noundef nonnull align 8 dereferenceable(8) %5) #15
  call void @llvm.lifetime.end.p0(i64 8, ptr nonnull %5) #15
  call void @llvm.lifetime.end.p0(i64 4, ptr nonnull %4) #15
  br label %47

47:                                               ; preds = %46, %35
  %.pn.pn = phi { ptr, i32 } [ %.pn, %46 ], [ %36, %35 ]
  resume { ptr, i32 } %.pn.pn
}